; Function Attrs: mustprogress nofree norecurse nosync nounwind willreturn memory(read, inaccessiblemem: none) uwtable
define hidden noundef i32 @_ZNK5ceres8internal29VisibilityBasedPreconditioner8num_rowsEv(ptr noundef nonnull readonly align 8 captures(none) dereferenceable(224) %0) unnamed_addr #15 align 2 {
  %2 = getelementptr inbounds nuw i8, ptr %0, i64 200
  %3 = load ptr, ptr %2, align 8, !tbaa !96
  %4 = getelementptr inbounds nuw i8, ptr %3, i64 104
  %5 = load ptr, ptr %4, align 8, !tbaa !308
  %6 = getelementptr inbounds nuw i8, ptr %5, i64 12
  %7 = load i32, ptr %6, align 4, !tbaa !310
  ret i32 %7
}